# SymbolsHelper-Confirmed: 4:4.4.1~ amd64 i386
liblancelot.so.0 liblancelot0a #MINVER#
 _ZN8Lancelot10CardLayout11setGeometryERK6QRectF@Base 4:4.4.1~
 _ZN8Lancelot10CardLayout4showERK7QString@Base 4:4.4.1~
 _ZN8Lancelot10CardLayout7addItemEP15QGraphicsWidgetRK7QString@Base 4:4.4.1~
 _ZN8Lancelot10CardLayout7addItemEP19QGraphicsLayoutItem@Base 4:4.4.1~
 _ZN8Lancelot10CardLayout7hideAllEv@Base 4:4.4.1~
 _ZN8Lancelot10CardLayout8removeAtEi@Base 4:4.4.1~
 _ZN8Lancelot10CardLayoutC1EP19QGraphicsLayoutItem@Base 4:4.4.1~
 _ZN8Lancelot10CardLayoutC2EP19QGraphicsLayoutItem@Base 4:4.4.1~
 _ZN8Lancelot10CardLayoutD0Ev@Base 4:4.4.1~
 _ZN8Lancelot10CardLayoutD1Ev@Base 4:4.4.1~
 _ZN8Lancelot10CardLayoutD2Ev@Base 4:4.4.1~
 _ZN8Lancelot10CustomList11qt_metacallEN11QMetaObject4CallEiPPv@Base 4:4.4.1~
 _ZN8Lancelot10CustomList11qt_metacastEPKc@Base 4:4.4.1~
 _ZN8Lancelot10CustomList14factoryUpdatedEv@Base 4:4.4.1~
 _ZN8Lancelot10CustomList14setItemFactoryEPNS_21CustomListItemFactoryE@Base 4:4.4.1~
 _ZN8Lancelot10CustomList15viewportChangedE6QRectF@Base 4:4.4.1~
 _ZN8Lancelot10CustomList16staticMetaObjectE@Base 4:4.4.1~
 _ZN8Lancelot10CustomList18factoryItemAlteredEi@Base 4:4.4.1~
 _ZN8Lancelot10CustomList18factoryItemDeletedEi@Base 4:4.4.1~
 _ZN8Lancelot10CustomList19factoryItemInsertedEi@Base 4:4.4.1~
 _ZN8Lancelot10CustomList6marginEN6Plasma10MarginEdgeE@Base 4:4.4.1~
 (subst)_ZN8Lancelot10CustomList9setMarginEN6Plasma10MarginEdgeE{qreal}@Base 4:4.4.1~
 _ZN8Lancelot10CustomListC1EP13QGraphicsItem@Base 4:4.4.1~
 _ZN8Lancelot10CustomListC1EPNS_21CustomListItemFactoryEP13QGraphicsItem@Base 4:4.4.1~
 _ZN8Lancelot10CustomListC2EP13QGraphicsItem@Base 4:4.4.1~
 _ZN8Lancelot10CustomListC2EPNS_21CustomListItemFactoryEP13QGraphicsItem@Base 4:4.4.1~
 _ZN8Lancelot10CustomListD0Ev@Base 4:4.4.1~
 _ZN8Lancelot10CustomListD1Ev@Base 4:4.4.1~
 _ZN8Lancelot10CustomListD2Ev@Base 4:4.4.1~
 _ZN8Lancelot10NodeLayout11setGeometryERK6QRectF@Base 4:4.4.1~
 (subst)_ZN8Lancelot10NodeLayout14NodeCoordinate6simpleE{qreal}{qreal}NS1_14CoordinateTypeES2_@Base 4:4.4.1~
 (subst)_ZN8Lancelot10NodeLayout14NodeCoordinateC1E{qreal}{qreal}{qreal}{qreal}@Base 4:4.4.1~
 (subst)_ZN8Lancelot10NodeLayout14NodeCoordinateC2E{qreal}{qreal}{qreal}{qreal}@Base 4:4.4.1~
 _ZN8Lancelot10NodeLayout7addItemEP19QGraphicsLayoutItem@Base 4:4.4.1~
 _ZN8Lancelot10NodeLayout7addItemEP19QGraphicsLayoutItemNS0_14NodeCoordinateES3_@Base 4:4.4.1~
 (subst)_ZN8Lancelot10NodeLayout7addItemEP19QGraphicsLayoutItemNS0_14NodeCoordinateE{qreal}{qreal}@Base 4:4.4.1~
 _ZN8Lancelot10NodeLayout8removeAtEi@Base 4:4.4.1~
 _ZN8Lancelot10NodeLayoutC1EP19QGraphicsLayoutItem@Base 4:4.4.1~
 _ZN8Lancelot10NodeLayoutC2EP19QGraphicsLayoutItem@Base 4:4.4.1~
 _ZN8Lancelot10NodeLayoutD0Ev@Base 4:4.4.1~
 _ZN8Lancelot10NodeLayoutD1Ev@Base 4:4.4.1~
 _ZN8Lancelot10NodeLayoutD2Ev@Base 4:4.4.1~
 _ZN8Lancelot10ScrollPane11qt_metacallEN11QMetaObject4CallEiPPv@Base 4:4.4.1~
 _ZN8Lancelot10ScrollPane11qt_metacastEPKc@Base 4:4.4.1~
 _ZN8Lancelot10ScrollPane11resizeEventEP25QGraphicsSceneResizeEvent@Base 4:4.4.1~
 _ZN8Lancelot10ScrollPane14scrollVerticalEi@Base 4:4.4.1~
 _ZN8Lancelot10ScrollPane15hoverEnterEventEP24QGraphicsSceneHoverEvent@Base 4:4.4.1~
 _ZN8Lancelot10ScrollPane15hoverLeaveEventEP24QGraphicsSceneHoverEvent@Base 4:4.4.1~
 _ZN8Lancelot10ScrollPane16scrollHorizontalEi@Base 4:4.4.1~
 _ZN8Lancelot10ScrollPane16staticMetaObjectE@Base 4:4.4.1~
 _ZN8Lancelot10ScrollPane17setScrollPositionERK7QPointF@Base 4:4.4.1~
 _ZN8Lancelot10ScrollPane19setScrollableWidgetEPNS_10ScrollableE@Base 4:4.4.1~
 _ZN8Lancelot10ScrollPane32scrollableWidgetSizeUpdateNeededEv@Base 4:4.4.1~
 _ZN8Lancelot10ScrollPane7setFlagENS0_4FlagE@Base 4:4.4.1~
 _ZN8Lancelot10ScrollPane7setFlipE6QFlagsIN6Plasma13FlipDirectionEE@Base 4:4.4.1~
 _ZN8Lancelot10ScrollPane8scrollToE6QRectF@Base 4:4.4.1~
 _ZN8Lancelot10ScrollPane8setFlagsE6QFlagsINS0_4FlagEE@Base 4:4.4.1~
 _ZN8Lancelot10ScrollPane9clearFlagENS0_4FlagE@Base 4:4.4.1~
 _ZN8Lancelot10ScrollPaneC1EP13QGraphicsItem@Base 4:4.4.1~
 _ZN8Lancelot10ScrollPaneC2EP13QGraphicsItem@Base 4:4.4.1~
 _ZN8Lancelot10ScrollPaneD0Ev@Base 4:4.4.1~
 _ZN8Lancelot10ScrollPaneD1Ev@Base 4:4.4.1~
 _ZN8Lancelot10ScrollPaneD2Ev@Base 4:4.4.1~
 _ZN8Lancelot10Scrollable13setScrollPaneEPNS_10ScrollPaneE@Base 4:4.4.1~
 _ZN8Lancelot10ScrollableC1Ev@Base 4:4.4.1~
 _ZN8Lancelot10ScrollableC2Ev@Base 4:4.4.1~
 _ZN8Lancelot10ScrollableD0Ev@Base 4:4.4.1~
 _ZN8Lancelot10ScrollableD1Ev@Base 4:4.4.1~
 _ZN8Lancelot10ScrollableD2Ev@Base 4:4.4.1~
 _ZN8Lancelot11BasicWidget11qt_metacallEN11QMetaObject4CallEiPPv@Base 4:4.4.1~
 _ZN8Lancelot11BasicWidget11qt_metacastEPKc@Base 4:4.4.1~
 _ZN8Lancelot11BasicWidget11setIconSizeE5QSize@Base 4:4.4.1~
 _ZN8Lancelot11BasicWidget12setAlignmentE6QFlagsIN2Qt13AlignmentFlagEE@Base 4:4.4.1~
 _ZN8Lancelot11BasicWidget12setIconInSvgERKN6Plasma3SvgE@Base 4:4.4.1~
 _ZN8Lancelot11BasicWidget14setDescriptionERK7QString@Base 4:4.4.1~
 _ZN8Lancelot11BasicWidget14setShortcutKeyERK7QString@Base 4:4.4.1~
 _ZN8Lancelot11BasicWidget15paintForegroundEP8QPainter@Base 4:4.4.1~
 _ZN8Lancelot11BasicWidget16staticMetaObjectE@Base 4:4.4.1~
 _ZN8Lancelot11BasicWidget19setInnerOrientationEN2Qt11OrientationE@Base 4:4.4.1~
 _ZN8Lancelot11BasicWidget5paintEP8QPainterPK24QStyleOptionGraphicsItemP7QWidget@Base 4:4.4.1~
 _ZN8Lancelot11BasicWidget7setIconE5QIcon@Base 4:4.4.1~
 _ZN8Lancelot11BasicWidget8drawTextEP8QPainterRK6QRectFiRK7QStringb@Base 4:4.4.1~
 _ZN8Lancelot11BasicWidget8setTitleERK7QString@Base 4:4.4.1~
 _ZN8Lancelot11BasicWidgetC1E5QIcon7QStringS2_P13QGraphicsItem@Base 4:4.4.1~
 _ZN8Lancelot11BasicWidgetC1E7QStringS1_P13QGraphicsItem@Base 4:4.4.1~
 _ZN8Lancelot11BasicWidgetC1EP13QGraphicsItem@Base 4:4.4.1~
 _ZN8Lancelot11BasicWidgetC1ERKN6Plasma3SvgE7QStringS5_P13QGraphicsItem@Base 4:4.4.1~
 _ZN8Lancelot11BasicWidgetC2E5QIcon7QStringS2_P13QGraphicsItem@Base 4:4.4.1~
 _ZN8Lancelot11BasicWidgetC2E7QStringS1_P13QGraphicsItem@Base 4:4.4.1~
 _ZN8Lancelot11BasicWidgetC2EP13QGraphicsItem@Base 4:4.4.1~
 _ZN8Lancelot11BasicWidgetC2ERKN6Plasma3SvgE7QStringS5_P13QGraphicsItem@Base 4:4.4.1~
 _ZN8Lancelot11BasicWidgetD0Ev@Base 4:4.4.1~
 _ZN8Lancelot11BasicWidgetD1Ev@Base 4:4.4.1~
 _ZN8Lancelot11BasicWidgetD2Ev@Base 4:4.4.1~
 _ZN8Lancelot12ColumnLayout11ColumnSizer6createENS1_9SizerTypeE@Base 4:4.4.1~
 _ZN8Lancelot12ColumnLayout11ColumnSizerD0Ev@Base 4:4.4.1~
 _ZN8Lancelot12ColumnLayout11ColumnSizerD1Ev@Base 4:4.4.1~
 _ZN8Lancelot12ColumnLayout11ColumnSizerD2Ev@Base 4:4.4.1~
 _ZN8Lancelot12ColumnLayout11setGeometryERK6QRectF@Base 4:4.4.1~
 _ZN8Lancelot12ColumnLayout14setColumnCountEi@Base 4:4.4.1~
 _ZN8Lancelot12ColumnLayout3popEv@Base 4:4.4.1~
 _ZN8Lancelot12ColumnLayout4pushEP15QGraphicsWidget@Base 4:4.4.1~
 _ZN8Lancelot12ColumnLayout8removeAtEi@Base 4:4.4.1~
 _ZN8Lancelot12ColumnLayout8setSizerEPNS0_11ColumnSizerE@Base 4:4.4.1~
 _ZN8Lancelot12ColumnLayoutC1EP19QGraphicsLayoutItem@Base 4:4.4.1~
 _ZN8Lancelot12ColumnLayoutC2EP19QGraphicsLayoutItem@Base 4:4.4.1~
 _ZN8Lancelot12ColumnLayoutD0Ev@Base 4:4.4.1~
 _ZN8Lancelot12ColumnLayoutD1Ev@Base 4:4.4.1~
 _ZN8Lancelot12ColumnLayoutD2Ev@Base 4:4.4.1~
 _ZN8Lancelot14ActionListView10sceneEventEP6QEvent@Base 4:4.4.1~
 _ZN8Lancelot14ActionListView11qt_metacallEN11QMetaObject4CallEiPPv@Base 4:4.4.1~
 _ZN8Lancelot14ActionListView11qt_metacastEPKc@Base 4:4.4.1~
 _ZN8Lancelot14ActionListView13keyPressEventEP9QKeyEvent@Base 4:4.4.1~
 _ZN8Lancelot14ActionListView13setItemHeightEiN2Qt8SizeHintE@Base 4:4.4.1~
 _ZN8Lancelot14ActionListView13setItemsGroupEPNS_5GroupE@Base 4:4.4.1~
 _ZN8Lancelot14ActionListView14clearSelectionEv@Base 4:4.4.1~
 _ZN8Lancelot14ActionListView15setItemIconSizeE5QSize@Base 4:4.4.1~
 _ZN8Lancelot14ActionListView16initialSelectionEv@Base 4:4.4.1~
 _ZN8Lancelot14ActionListView16sceneEventFilterEP13QGraphicsItemP6QEvent@Base 4:4.4.1~
 _ZN8Lancelot14ActionListView16staticMetaObjectE@Base 4:4.4.1~
 _ZN8Lancelot14ActionListView17setCategoryHeightEiN2Qt8SizeHintE@Base 4:4.4.1~
 _ZN8Lancelot14ActionListView18setCategoriesGroupEPNS_5GroupE@Base 4:4.4.1~
 _ZN8Lancelot14ActionListView19setCategoryIconSizeE5QSize@Base 4:4.4.1~
 _ZN8Lancelot14ActionListView19setExtenderPositionEi@Base 4:4.4.1~
 _ZN8Lancelot14ActionListView19setItemsGroupByNameERK7QString@Base 4:4.4.1~
 _ZN8Lancelot14ActionListView22setCategoriesActivableEb@Base 4:4.4.1~
 _ZN8Lancelot14ActionListView24setCategoriesGroupByNameERK7QString@Base 4:4.4.1~
 _ZN8Lancelot14ActionListView24setShowsExtendersOutsideEb@Base 4:4.4.1~
 _ZN8Lancelot14ActionListView7Private11qt_metacallEN11QMetaObject4CallEiPPv@Base 4:4.4.1~
 _ZN8Lancelot14ActionListView7Private11qt_metacastEPKc@Base 4:4.4.1~
 _ZN8Lancelot14ActionListView7Private16staticMetaObjectE@Base 4:4.4.1~
 _ZN8Lancelot14ActionListView7Private19immutabilityChangedEN6Plasma16ImmutabilityTypeE@Base 4:4.4.1~
 _ZN8Lancelot14ActionListView7Private20sizeHintUpdateNeededEv@Base 4:4.4.1~
 _ZN8Lancelot14ActionListView7PrivateC1EPS0_@Base 4:4.4.1~
 _ZN8Lancelot14ActionListView7PrivateC2EPS0_@Base 4:4.4.1~
 _ZN8Lancelot14ActionListView7PrivateD0Ev@Base 4:4.4.1~
 _ZN8Lancelot14ActionListView7PrivateD1Ev@Base 4:4.4.1~
 _ZN8Lancelot14ActionListView7PrivateD2Ev@Base 4:4.4.1~
 _ZN8Lancelot14ActionListView8setModelEPNS_15ActionListModelE@Base 4:4.4.1~
 _ZN8Lancelot14ActionListView9activatedEi@Base 4:4.4.1~
 _ZN8Lancelot14ActionListViewC1EP13QGraphicsItem@Base 4:4.4.1~
 _ZN8Lancelot14ActionListViewC1EPNS_15ActionListModelEP13QGraphicsItem@Base 4:4.4.1~
 _ZN8Lancelot14ActionListViewC2EP13QGraphicsItem@Base 4:4.4.1~
 _ZN8Lancelot14ActionListViewC2EPNS_15ActionListModelEP13QGraphicsItem@Base 4:4.4.1~
 _ZN8Lancelot14ActionListViewD0Ev@Base 4:4.4.1~
 _ZN8Lancelot14ActionListViewD1Ev@Base 4:4.4.1~
 _ZN8Lancelot14ActionListViewD2Ev@Base 4:4.4.1~
 _ZN8Lancelot14CustomListItemC1Ev@Base 4:4.4.1~
 _ZN8Lancelot14CustomListItemC2Ev@Base 4:4.4.1~
 _ZN8Lancelot14CustomListItemD0Ev@Base 4:4.4.1~
 _ZN8Lancelot14CustomListItemD1Ev@Base 4:4.4.1~
 _ZN8Lancelot14CustomListItemD2Ev@Base 4:4.4.1~
 _ZN8Lancelot14CustomListView11qt_metacallEN11QMetaObject4CallEiPPv@Base 4:4.4.1~
 _ZN8Lancelot14CustomListView11qt_metacastEPKc@Base 4:4.4.1~
 _ZN8Lancelot14CustomListView16staticMetaObjectE@Base 4:4.4.1~
 _ZN8Lancelot14CustomListViewC1EP13QGraphicsItem@Base 4:4.4.1~
 _ZN8Lancelot14CustomListViewC1EPNS_21CustomListItemFactoryEP13QGraphicsItem@Base 4:4.4.1~
 _ZN8Lancelot14CustomListViewC2EP13QGraphicsItem@Base 4:4.4.1~
 _ZN8Lancelot14CustomListViewC2EPNS_21CustomListItemFactoryEP13QGraphicsItem@Base 4:4.4.1~
 _ZN8Lancelot14CustomListViewD0Ev@Base 4:4.4.1~
 _ZN8Lancelot14CustomListViewD1Ev@Base 4:4.4.1~
 _ZN8Lancelot14CustomListViewD2Ev@Base 4:4.4.1~
 _ZN8Lancelot14ExtenderButton10setCheckedEb@Base 4:4.4.1~
 _ZN8Lancelot14ExtenderButton11qt_metacallEN11QMetaObject4CallEiPPv@Base 4:4.4.1~
 _ZN8Lancelot14ExtenderButton11qt_metacastEPKc@Base 4:4.4.1~
 _ZN8Lancelot14ExtenderButton11resizeEventEP25QGraphicsSceneResizeEvent@Base 4:4.4.1~
 _ZN8Lancelot14ExtenderButton12setCheckableEb@Base 4:4.4.1~
 _ZN8Lancelot14ExtenderButton14setShortcutKeyERK7QString@Base 4:4.4.1~
 _ZN8Lancelot14ExtenderButton15hoverEnterEventEP24QGraphicsSceneHoverEvent@Base 4:4.4.1~
 _ZN8Lancelot14ExtenderButton15hoverLeaveEventEP24QGraphicsSceneHoverEvent@Base 4:4.4.1~
 _ZN8Lancelot14ExtenderButton16staticMetaObjectE@Base 4:4.4.1~
 _ZN8Lancelot14ExtenderButton19setActivationMethodEi@Base 4:4.4.1~
 _ZN8Lancelot14ExtenderButton19setExtenderPositionEi@Base 4:4.4.1~
 _ZN8Lancelot14ExtenderButton5paintEP8QPainterPK24QStyleOptionGraphicsItemP7QWidget@Base 4:4.4.1~
 _ZN8Lancelot14ExtenderButton6toggleEv@Base 4:4.4.1~
 _ZN8Lancelot14ExtenderButton7Private15extenderIconSvgE@Base 4:4.4.1~
 _ZN8Lancelot14ExtenderButton7toggledEb@Base 4:4.4.1~
 _ZN8Lancelot14ExtenderButton8activateEv@Base 4:4.4.1~
 _ZN8Lancelot14ExtenderButton8setGroupEPNS_5GroupE@Base 4:4.4.1~
 _ZN8Lancelot14ExtenderButton9activatedEv@Base 4:4.4.1~
 _ZN8Lancelot14ExtenderButton9hideEventEP10QHideEvent@Base 4:4.4.1~
 _ZN8Lancelot14ExtenderButtonC1E5QIcon7QStringS2_P13QGraphicsItem@Base 4:4.4.1~
 _ZN8Lancelot14ExtenderButtonC1E7QStringS1_P13QGraphicsItem@Base 4:4.4.1~
 _ZN8Lancelot14ExtenderButtonC1EP13QGraphicsItem@Base 4:4.4.1~
 _ZN8Lancelot14ExtenderButtonC1ERKN6Plasma3SvgE7QStringS5_P13QGraphicsItem@Base 4:4.4.1~
 _ZN8Lancelot14ExtenderButtonC2E5QIcon7QStringS2_P13QGraphicsItem@Base 4:4.4.1~
 _ZN8Lancelot14ExtenderButtonC2E7QStringS1_P13QGraphicsItem@Base 4:4.4.1~
 _ZN8Lancelot14ExtenderButtonC2EP13QGraphicsItem@Base 4:4.4.1~
 _ZN8Lancelot14ExtenderButtonC2ERKN6Plasma3SvgE7QStringS5_P13QGraphicsItem@Base 4:4.4.1~
 _ZN8Lancelot14ExtenderButtonD0Ev@Base 4:4.4.1~
 _ZN8Lancelot14ExtenderButtonD1Ev@Base 4:4.4.1~
 _ZN8Lancelot14ExtenderButtonD2Ev@Base 4:4.4.1~
 _ZN8Lancelot14PassagewayView11qt_metacallEN11QMetaObject4CallEiPPv@Base 4:4.4.1~
 _ZN8Lancelot14PassagewayView11qt_metacastEPKc@Base 4:4.4.1~
 _ZN8Lancelot14PassagewayView12setAtlasIconE5QIcon@Base 4:4.4.1~
 _ZN8Lancelot14PassagewayView13keyPressEventEP9QKeyEvent@Base 4:4.4.1~
 _ZN8Lancelot14PassagewayView13setAtlasModelEPNS_15ActionTreeModelE@Base 4:4.4.1~
 _ZN8Lancelot14PassagewayView13setAtlasTitleERK7QString@Base 4:4.4.1~
 _ZN8Lancelot14PassagewayView14clearSelectionEv@Base 4:4.4.1~
 _ZN8Lancelot14PassagewayView14setColumnLimitEi@Base 4:4.4.1~
 _ZN8Lancelot14PassagewayView15setEntranceIconE5QIcon@Base 4:4.4.1~
 _ZN8Lancelot14PassagewayView16setEntranceModelEPNS_15ActionTreeModelE@Base 4:4.4.1~
 _ZN8Lancelot14PassagewayView16setEntranceTitleERK7QString@Base 4:4.4.1~
 _ZN8Lancelot14PassagewayView16staticMetaObjectE@Base 4:4.4.1~
 _ZN8Lancelot14PassagewayView17listItemActivatedEii@Base 4:4.4.1~
 _ZN8Lancelot14PassagewayView19pathButtonActivatedEv@Base 4:4.4.1~
 _ZN8Lancelot14PassagewayView19setActivationMethodEi@Base 4:4.4.1~
 _ZN8Lancelot14PassagewayView5resetEv@Base 4:4.4.1~
 _ZN8Lancelot14PassagewayView8setGroupEPNS_5GroupE@Base 4:4.4.1~
 _ZN8Lancelot14PassagewayViewC1EP13QGraphicsItem@Base 4:4.4.1~
 _ZN8Lancelot14PassagewayViewC1EPNS_15ActionTreeModelES2_P13QGraphicsItem@Base 4:4.4.1~
 _ZN8Lancelot14PassagewayViewC2EP13QGraphicsItem@Base 4:4.4.1~
 _ZN8Lancelot14PassagewayViewC2EPNS_15ActionTreeModelES2_P13QGraphicsItem@Base 4:4.4.1~
 _ZN8Lancelot14PassagewayViewD0Ev@Base 4:4.4.1~
 _ZN8Lancelot14PassagewayViewD1Ev@Base 4:4.4.1~
 _ZN8Lancelot14PassagewayViewD2Ev@Base 4:4.4.1~
 _ZN8Lancelot15ActionListModel11dataDroppedEiPK9QMimeData@Base 4:4.4.1~
 _ZN8Lancelot15ActionListModel11itemAlteredEi@Base 4:4.4.1~
 _ZN8Lancelot15ActionListModel11itemDeletedEi@Base 4:4.4.1~
 _ZN8Lancelot15ActionListModel11qt_metacallEN11QMetaObject4CallEiPPv@Base 4:4.4.1~
 _ZN8Lancelot15ActionListModel11qt_metacastEPKc@Base 4:4.4.1~
 _ZN8Lancelot15ActionListModel12itemInsertedEi@Base 4:4.4.1~
 _ZN8Lancelot15ActionListModel13itemActivatedEi@Base 4:4.4.1~
 _ZN8Lancelot15ActionListModel14setDropActionsEiR6QFlagsIN2Qt10DropActionEERS3_@Base 4:4.4.1~
 _ZN8Lancelot15ActionListModel15contextActivateEiP7QAction@Base 4:4.4.1~
 _ZN8Lancelot15ActionListModel16dataDragFinishedEiN2Qt10DropActionE@Base 4:4.4.1~
 _ZN8Lancelot15ActionListModel16staticMetaObjectE@Base 4:4.4.1~
 _ZN8Lancelot15ActionListModel17dataDropAvailableEiPK9QMimeData@Base 4:4.4.1~
 _ZN8Lancelot15ActionListModel17setContextActionsEiPNS_9PopupMenuE@Base 4:4.4.1~
 _ZN8Lancelot15ActionListModel7updatedEv@Base 4:4.4.1~
 _ZN8Lancelot15ActionListModel8activateEi@Base 4:4.4.1~
 _ZN8Lancelot15ActionListModel9activatedEi@Base 4:4.4.1~
 _ZN8Lancelot15ActionListModelC1Ev@Base 4:4.4.1~
 _ZN8Lancelot15ActionListModelC2Ev@Base 4:4.4.1~
 _ZN8Lancelot15ActionListModelD0Ev@Base 4:4.4.1~
 _ZN8Lancelot15ActionListModelD1Ev@Base 4:4.4.1~
 _ZN8Lancelot15ActionListModelD2Ev@Base 4:4.4.1~
 _ZN8Lancelot15ActionTreeModelC1Ev@Base 4:4.4.1~
 _ZN8Lancelot15ActionTreeModelC2Ev@Base 4:4.4.1~
 _ZN8Lancelot15ActionTreeModelD0Ev@Base 4:4.4.1~
 _ZN8Lancelot15ActionTreeModelD1Ev@Base 4:4.4.1~
 _ZN8Lancelot15ActionTreeModelD2Ev@Base 4:4.4.1~
 _ZN8Lancelot16FullBorderLayout11setAutoSizeENS0_6BorderE@Base 4:4.4.1~
 _ZN8Lancelot16FullBorderLayout11setGeometryERK6QRectF@Base 4:4.4.1~
 _ZN8Lancelot16FullBorderLayout7addItemEP19QGraphicsLayoutItem@Base 4:4.4.1~
 _ZN8Lancelot16FullBorderLayout7addItemEP19QGraphicsLayoutItemNS0_5PlaceE@Base 4:4.4.1~
 (subst)_ZN8Lancelot16FullBorderLayout7setSizeE{qreal}NS0_6BorderE@Base 4:4.4.1~
 _ZN8Lancelot16FullBorderLayout8removeAtEi@Base 4:4.4.1~
 _ZN8Lancelot16FullBorderLayoutC1EP19QGraphicsLayoutItem@Base 4:4.4.1~
 _ZN8Lancelot16FullBorderLayoutC2EP19QGraphicsLayoutItem@Base 4:4.4.1~
 _ZN8Lancelot16FullBorderLayoutD0Ev@Base 4:4.4.1~
 _ZN8Lancelot16FullBorderLayoutD1Ev@Base 4:4.4.1~
 _ZN8Lancelot16FullBorderLayoutD2Ev@Base 4:4.4.1~
 _ZN8Lancelot17FlipLayoutManager10m_instanceE@Base 4:4.4.1~
 _ZN8Lancelot17FlipLayoutManager13setGlobalFlipE6QFlagsIN6Plasma13FlipDirectionEE@Base 4:4.4.1~
 _ZN8Lancelot17FlipLayoutManager16setUseGlobalFlipEPK15QGraphicsLayout@Base 4:4.4.1~
 _ZN8Lancelot17FlipLayoutManager4selfEv@Base 4:4.4.1~
 _ZN8Lancelot17FlipLayoutManager7setFlipEPK15QGraphicsLayout6QFlagsIN6Plasma13FlipDirectionEE@Base 4:4.4.1~
 _ZN8Lancelot17FlipLayoutManagerC1Ev@Base 4:4.4.1~
 _ZN8Lancelot17FlipLayoutManagerC2Ev@Base 4:4.4.1~
 _ZN8Lancelot17FlipLayoutManagerD1Ev@Base 4:4.4.1~
 _ZN8Lancelot17FlipLayoutManagerD2Ev@Base 4:4.4.1~
 _ZN8Lancelot18ResizeBordersPanel11resizeEventEP25QGraphicsSceneResizeEvent@Base 4:4.4.1~
 _ZN8Lancelot18ResizeBordersPanelC1EP13QGraphicsItem@Base 4:4.4.1~
 _ZN8Lancelot18ResizeBordersPanelC2EP13QGraphicsItem@Base 4:4.4.1~
 _ZN8Lancelot18ResizeBordersPanelD0Ev@Base 4:4.4.1~
 _ZN8Lancelot18ResizeBordersPanelD1Ev@Base 4:4.4.1~
 _ZN8Lancelot18ResizeBordersPanelD2Ev@Base 4:4.4.1~
 _ZN8Lancelot20ActionTreeModelProxy11dataDroppedEiPK9QMimeData@Base 4:4.4.1~
 _ZN8Lancelot20ActionTreeModelProxy11itemAlteredEi@Base 4:4.4.1~
 _ZN8Lancelot20ActionTreeModelProxy11itemDeletedEi@Base 4:4.4.1~
 _ZN8Lancelot20ActionTreeModelProxy11qt_metacallEN11QMetaObject4CallEiPPv@Base 4:4.4.1~
 _ZN8Lancelot20ActionTreeModelProxy11qt_metacastEPKc@Base 4:4.4.1~
 _ZN8Lancelot20ActionTreeModelProxy12itemInsertedEi@Base 4:4.4.1~
 _ZN8Lancelot20ActionTreeModelProxy13itemActivatedEi@Base 4:4.4.1~
 _ZN8Lancelot20ActionTreeModelProxy14setDropActionsEiR6QFlagsIN2Qt10DropActionEERS3_@Base 4:4.4.1~
 _ZN8Lancelot20ActionTreeModelProxy15contextActivateEiP7QAction@Base 4:4.4.1~
 _ZN8Lancelot20ActionTreeModelProxy16dataDragFinishedEiN2Qt10DropActionE@Base 4:4.4.1~
 _ZN8Lancelot20ActionTreeModelProxy16staticMetaObjectE@Base 4:4.4.1~
 _ZN8Lancelot20ActionTreeModelProxy17dataDropAvailableEiPK9QMimeData@Base 4:4.4.1~
 _ZN8Lancelot20ActionTreeModelProxy17setContextActionsEiPNS_9PopupMenuE@Base 4:4.4.1~
 _ZN8Lancelot20ActionTreeModelProxy5childEi@Base 4:4.4.1~
 _ZN8Lancelot20ActionTreeModelProxy7updatedEv@Base 4:4.4.1~
 _ZN8Lancelot20ActionTreeModelProxy8activateEi@Base 4:4.4.1~
 _ZN8Lancelot20ActionTreeModelProxyC1EPNS_15ActionListModelE7QString5QIcon@Base 4:4.4.1~
 _ZN8Lancelot20ActionTreeModelProxyC2EPNS_15ActionListModelE7QString5QIcon@Base 4:4.4.1~
 _ZN8Lancelot20ActionTreeModelProxyD0Ev@Base 4:4.4.1~
 _ZN8Lancelot20ActionTreeModelProxyD1Ev@Base 4:4.4.1~
 _ZN8Lancelot20ActionTreeModelProxyD2Ev@Base 4:4.4.1~
 _ZN8Lancelot21CustomListItemFactory11itemAlteredEi@Base 4:4.4.1~
 _ZN8Lancelot21CustomListItemFactory11itemDeletedEi@Base 4:4.4.1~
 _ZN8Lancelot21CustomListItemFactory11qt_metacallEN11QMetaObject4CallEiPPv@Base 4:4.4.1~
 _ZN8Lancelot21CustomListItemFactory11qt_metacastEPKc@Base 4:4.4.1~
 _ZN8Lancelot21CustomListItemFactory12itemInsertedEi@Base 4:4.4.1~
 _ZN8Lancelot21CustomListItemFactory16staticMetaObjectE@Base 4:4.4.1~
 _ZN8Lancelot21CustomListItemFactory7updatedEv@Base 4:4.4.1~
 _ZN8Lancelot21CustomListItemFactoryC1Ev@Base 4:4.4.1~
 _ZN8Lancelot21CustomListItemFactoryC2Ev@Base 4:4.4.1~
 _ZN8Lancelot21CustomListItemFactoryD0Ev@Base 4:4.4.1~
 _ZN8Lancelot21CustomListItemFactoryD1Ev@Base 4:4.4.1~
 _ZN8Lancelot21CustomListItemFactoryD2Ev@Base 4:4.4.1~
 _ZN8Lancelot21MergedActionListModel11dataDroppedEiPK9QMimeData@Base 4:4.4.1~
 _ZN8Lancelot21MergedActionListModel11qt_metacallEN11QMetaObject4CallEiPPv@Base 4:4.4.1~
 _ZN8Lancelot21MergedActionListModel11qt_metacastEPKc@Base 4:4.4.1~
 _ZN8Lancelot21MergedActionListModel11removeModelEi@Base 4:4.4.1~
 _ZN8Lancelot21MergedActionListModel12modelUpdatedEv@Base 4:4.4.1~
 _ZN8Lancelot21MergedActionListModel14setDropActionsEiR6QFlagsIN2Qt10DropActionEERS3_@Base 4:4.4.1~
 _ZN8Lancelot21MergedActionListModel15contextActivateEiP7QAction@Base 4:4.4.1~
 _ZN8Lancelot21MergedActionListModel16dataDragFinishedEiN2Qt10DropActionE@Base 4:4.4.1~
 _ZN8Lancelot21MergedActionListModel16modelDataDroppedEiN2Qt10DropActionE@Base 4:4.4.1~
 _ZN8Lancelot21MergedActionListModel16modelItemAlteredEi@Base 4:4.4.1~
 _ZN8Lancelot21MergedActionListModel16modelItemDeletedEi@Base 4:4.4.1~
 _ZN8Lancelot21MergedActionListModel16staticMetaObjectE@Base 4:4.4.1~
 _ZN8Lancelot21MergedActionListModel17dataDropAvailableEiPK9QMimeData@Base 4:4.4.1~
 _ZN8Lancelot21MergedActionListModel17modelItemInsertedEi@Base 4:4.4.1~
 _ZN8Lancelot21MergedActionListModel17setContextActionsEiPNS_9PopupMenuE@Base 4:4.4.1~
 _ZN8Lancelot21MergedActionListModel18setHideEmptyModelsEb@Base 4:4.4.1~
 _ZN8Lancelot21MergedActionListModel19setModelDropActionsEiR6QFlagsIN2Qt10DropActionEERS3_@Base 4:4.4.1~
 _ZN8Lancelot21MergedActionListModel20modelContextActivateEiP7QAction@Base 4:4.4.1~
 _ZN8Lancelot21MergedActionListModel22setModelContextActionsEiPNS_9PopupMenuE@Base 4:4.4.1~
 _ZN8Lancelot21MergedActionListModel7modelAtEi@Base 4:4.4.1~
 _ZN8Lancelot21MergedActionListModel8activateEi@Base 4:4.4.1~
 _ZN8Lancelot21MergedActionListModel8addModelE5QIconRK7QStringPNS_15ActionListModelE@Base 4:4.4.1~
 _ZN8Lancelot21MergedActionListModel8addModelEPNS_15ActionListModelE@Base 4:4.4.1~
 _ZN8Lancelot21MergedActionListModelC1Ev@Base 4:4.4.1~
 _ZN8Lancelot21MergedActionListModelC2Ev@Base 4:4.4.1~
 _ZN8Lancelot21MergedActionListModelD0Ev@Base 4:4.4.1~
 _ZN8Lancelot21MergedActionListModelD1Ev@Base 4:4.4.1~
 _ZN8Lancelot21MergedActionListModelD2Ev@Base 4:4.4.1~
 _ZN8Lancelot22PlasmaServiceListModel11dataUpdatedERK7QStringRK5QHashIS1_8QVariantE@Base 4:4.4.1~
 _ZN8Lancelot22PlasmaServiceListModel11qt_metacallEN11QMetaObject4CallEiPPv@Base 4:4.4.1~
 _ZN8Lancelot22PlasmaServiceListModel11qt_metacastEPKc@Base 4:4.4.1~
 _ZN8Lancelot22PlasmaServiceListModel16staticMetaObjectE@Base 4:4.4.1~
 _ZN8Lancelot22PlasmaServiceListModel8activateEi@Base 4:4.4.1~
 _ZN8Lancelot22PlasmaServiceListModelC1E7QString@Base 4:4.4.1~
 _ZN8Lancelot22PlasmaServiceListModelC2E7QString@Base 4:4.4.1~
 _ZN8Lancelot22PlasmaServiceListModelD0Ev@Base 4:4.4.1~
 _ZN8Lancelot22PlasmaServiceListModelD1Ev@Base 4:4.4.1~
 _ZN8Lancelot22PlasmaServiceListModelD2Ev@Base 4:4.4.1~
 _ZN8Lancelot23StandardActionListModel11qt_metacallEN11QMetaObject4CallEiPPv@Base 4:4.4.1~
 _ZN8Lancelot23StandardActionListModel11qt_metacastEPKc@Base 4:4.4.1~
 _ZN8Lancelot23StandardActionListModel16setEmitInhibitedEb@Base 4:4.4.1~
 _ZN8Lancelot23StandardActionListModel16staticMetaObjectE@Base 4:4.4.1~
 _ZN8Lancelot23StandardActionListModel3addERK7QStringS3_5QIconRK8QVariant@Base 4:4.4.1~
 _ZN8Lancelot23StandardActionListModel3addERKNS0_4ItemE@Base 4:4.4.1~
 _ZN8Lancelot23StandardActionListModel3setEiRK7QStringS3_5QIconRK8QVariant@Base 4:4.4.1~
 _ZN8Lancelot23StandardActionListModel3setEiRKNS0_4ItemE@Base 4:4.4.1~
 _ZN8Lancelot23StandardActionListModel5clearEv@Base 4:4.4.1~
 _ZN8Lancelot23StandardActionListModel6insertEiRK7QStringS3_5QIconRK8QVariant@Base 4:4.4.1~
 _ZN8Lancelot23StandardActionListModel6insertEiRKNS0_4ItemE@Base 4:4.4.1~
 _ZN8Lancelot23StandardActionListModel8removeAtEi@Base 4:4.4.1~
 _ZN8Lancelot23StandardActionListModelC1Ev@Base 4:4.4.1~
 _ZN8Lancelot23StandardActionListModelC2Ev@Base 4:4.4.1~
 _ZN8Lancelot23StandardActionListModelD0Ev@Base 4:4.4.1~
 _ZN8Lancelot23StandardActionListModelD1Ev@Base 4:4.4.1~
 _ZN8Lancelot23StandardActionListModelD2Ev@Base 4:4.4.1~
 _ZN8Lancelot23StandardActionTreeModel3addEPNS0_4ItemES2_@Base 4:4.4.1~
 _ZN8Lancelot23StandardActionTreeModel3addERK7QStringS3_5QIconRK8QVariantPNS0_4ItemE@Base 4:4.4.1~
 _ZN8Lancelot23StandardActionTreeModel3setEiPNS0_4ItemES2_@Base 4:4.4.1~
 _ZN8Lancelot23StandardActionTreeModel3setEiRK7QStringS3_5QIconRK8QVariantPNS0_4ItemE@Base 4:4.4.1~
 _ZN8Lancelot23StandardActionTreeModel4ItemC1E7QStringS2_5QIcon8QVariant@Base 4:4.4.1~
 _ZN8Lancelot23StandardActionTreeModel4ItemC2E7QStringS2_5QIcon8QVariant@Base 4:4.4.1~
 _ZN8Lancelot23StandardActionTreeModel4ItemD1Ev@Base 4:4.4.1~
 _ZN8Lancelot23StandardActionTreeModel4ItemD2Ev@Base 4:4.4.1~
 _ZN8Lancelot23StandardActionTreeModel5childEi@Base 4:4.4.1~
 _ZN8Lancelot23StandardActionTreeModel5clearEPNS0_4ItemE@Base 4:4.4.1~
 _ZN8Lancelot23StandardActionTreeModel6itemAtEiPNS0_4ItemE@Base 4:4.4.1~
 _ZN8Lancelot23StandardActionTreeModel8removeAtEiPNS0_4ItemE@Base 4:4.4.1~
 _ZN8Lancelot23StandardActionTreeModelC1EPNS0_4ItemE@Base 4:4.4.1~
 _ZN8Lancelot23StandardActionTreeModelC1Ev@Base 4:4.4.1~
 _ZN8Lancelot23StandardActionTreeModelC2EPNS0_4ItemE@Base 4:4.4.1~
 _ZN8Lancelot23StandardActionTreeModelC2Ev@Base 4:4.4.1~
 _ZN8Lancelot23StandardActionTreeModelD0Ev@Base 4:4.4.1~
 _ZN8Lancelot23StandardActionTreeModelD1Ev@Base 4:4.4.1~
 _ZN8Lancelot23StandardActionTreeModelD2Ev@Base 4:4.4.1~
 _ZN8Lancelot5Group11ColorSchemeC1Ev@Base 4:4.4.1~
 _ZN8Lancelot5Group11ColorSchemeC2Ev@Base 4:4.4.1~
 _ZN8Lancelot5Group11setPropertyERK7QStringRK8QVariantb@Base 4:4.4.1~
 _ZN8Lancelot5Group13clearPropertyERK7QString@Base 4:4.4.1~
 _ZN8Lancelot5Group3addEP7QObject@Base 4:4.4.1~
 _ZN8Lancelot5Group4loadEb@Base 4:4.4.1~
 _ZN8Lancelot5Group6removeEP7QObjectb@Base 4:4.4.1~
 _ZN8Lancelot5Group7Private14confGroupThemeEv@Base 4:4.4.1~
 _ZN8Lancelot5Group7Private17setObjectPropertyEP7QObjectRK7QStringRK8QVariant@Base 4:4.4.1~
 _ZN8Lancelot5Group7Private5resetEv@Base 4:4.4.1~
 _ZN8Lancelot5Group7Private8copyFromEPS1_@Base 4:4.4.1~
 _ZN8Lancelot5Group7PrivateC1Ev@Base 4:4.4.1~
 _ZN8Lancelot5Group7PrivateC2Ev@Base 4:4.4.1~
 _ZN8Lancelot5Group7PrivateD1Ev@Base 4:4.4.1~
 _ZN8Lancelot5Group7PrivateD2Ev@Base 4:4.4.1~
 _ZN8Lancelot5Group8containsEP7QObject@Base 4:4.4.1~
 _ZN8Lancelot5GroupC1E7QString@Base 4:4.4.1~
 _ZN8Lancelot5GroupC2E7QString@Base 4:4.4.1~
 _ZN8Lancelot5GroupD0Ev@Base 4:4.4.1~
 _ZN8Lancelot5GroupD1Ev@Base 4:4.4.1~
 _ZN8Lancelot5GroupD2Ev@Base 4:4.4.1~
 _ZN8Lancelot5Panel11qt_metacallEN11QMetaObject4CallEiPPv@Base 4:4.4.1~
 _ZN8Lancelot5Panel11qt_metacastEPKc@Base 4:4.4.1~
 _ZN8Lancelot5Panel11resizeEventEP25QGraphicsSceneResizeEvent@Base 4:4.4.1~
 _ZN8Lancelot5Panel11setIconSizeE5QSize@Base 4:4.4.1~
 _ZN8Lancelot5Panel13setLayoutItemEP19QGraphicsLayoutItem@Base 4:4.4.1~
 _ZN8Lancelot5Panel15setShowingTitleEb@Base 4:4.4.1~
 _ZN8Lancelot5Panel16staticMetaObjectE@Base 4:4.4.1~
 _ZN8Lancelot5Panel7setIconE5QIcon@Base 4:4.4.1~
 _ZN8Lancelot5Panel8setGroupEPNS_5GroupE@Base 4:4.4.1~
 _ZN8Lancelot5Panel8setTitleERK7QString@Base 4:4.4.1~
 _ZN8Lancelot5PanelC1E5QIcon7QStringP13QGraphicsItem@Base 4:4.4.1~
 _ZN8Lancelot5PanelC1E7QStringP13QGraphicsItem@Base 4:4.4.1~
 _ZN8Lancelot5PanelC1EP13QGraphicsItem@Base 4:4.4.1~
 _ZN8Lancelot5PanelC2E5QIcon7QStringP13QGraphicsItem@Base 4:4.4.1~
 _ZN8Lancelot5PanelC2E7QStringP13QGraphicsItem@Base 4:4.4.1~
 _ZN8Lancelot5PanelC2EP13QGraphicsItem@Base 4:4.4.1~
 _ZN8Lancelot5PanelD0Ev@Base 4:4.4.1~
 _ZN8Lancelot5PanelD1Ev@Base 4:4.4.1~
 _ZN8Lancelot5PanelD2Ev@Base 4:4.4.1~
 _ZN8Lancelot6Global11qt_metacallEN11QMetaObject4CallEiPPv@Base 4:4.4.1~
 _ZN8Lancelot6Global11qt_metacastEPKc@Base 4:4.4.1~
 _ZN8Lancelot6Global12defaultGroupEv@Base 4:4.4.1~
 _ZN8Lancelot6Global14groupForObjectEP7QObject@Base 4:4.4.1~
 _ZN8Lancelot6Global15setImmutabilityEN6Plasma16ImmutabilityTypeE@Base 4:4.4.1~
 _ZN8Lancelot6Global16staticMetaObjectE@Base 4:4.4.1~
 _ZN8Lancelot6Global17setGroupForObjectEP7QObjectPNS_5GroupE@Base 4:4.4.1~
 _ZN8Lancelot6Global19immutabilityChangedEN6Plasma16ImmutabilityTypeE@Base 4:4.4.1~
 _ZN8Lancelot6Global4selfEv@Base 4:4.4.1~
 _ZN8Lancelot6Global5groupERK7QString@Base 4:4.4.1~
 _ZN8Lancelot6Global5themeEv@Base 4:4.4.1~
 _ZN8Lancelot6Global6configEv@Base 4:4.4.1~
 _ZN8Lancelot6Global7Private11qt_metacallEN11QMetaObject4CallEiPPv@Base 4:4.4.1~
 _ZN8Lancelot6Global7Private11qt_metacastEPKc@Base 4:4.4.1~
 _ZN8Lancelot6Global7Private12themeChangedEv@Base 4:4.4.1~
 _ZN8Lancelot6Global7Private13loadAllGroupsEb@Base 4:4.4.1~
 _ZN8Lancelot6Global7Private13objectDeletedEP7QObject@Base 4:4.4.1~
 _ZN8Lancelot6Global7Private15createConfThemeEv@Base 4:4.4.1~
 _ZN8Lancelot6Global7Private16staticMetaObjectE@Base 4:4.4.1~
 _ZN8Lancelot6Global7Private8instanceE@Base 4:4.4.1~
 _ZN8Lancelot6Global7PrivateC1Ev@Base 4:4.4.1~
 _ZN8Lancelot6Global7PrivateC2Ev@Base 4:4.4.1~
 _ZN8Lancelot6Global7PrivateD0Ev@Base 4:4.4.1~
 _ZN8Lancelot6Global7PrivateD1Ev@Base 4:4.4.1~
 _ZN8Lancelot6Global7PrivateD2Ev@Base 4:4.4.1~
 _ZN8Lancelot6GlobalC1Ev@Base 4:4.4.1~
 _ZN8Lancelot6GlobalC2Ev@Base 4:4.4.1~
 _ZN8Lancelot6GlobalD0Ev@Base 4:4.4.1~
 _ZN8Lancelot6GlobalD1Ev@Base 4:4.4.1~
 _ZN8Lancelot6GlobalD2Ev@Base 4:4.4.1~
 _ZN8Lancelot6Widget10setHoveredEb@Base 4:4.4.1~
 _ZN8Lancelot6Widget11qt_metacallEN11QMetaObject4CallEiPPv@Base 4:4.4.1~
 _ZN8Lancelot6Widget11qt_metacastEPKc@Base 4:4.4.1~
 _ZN8Lancelot6Widget14setGroupByNameERK7QString@Base 4:4.4.1~
 _ZN8Lancelot6Widget15hoverEnterEventEP24QGraphicsSceneHoverEvent@Base 4:4.4.1~
 _ZN8Lancelot6Widget15hoverLeaveEventEP24QGraphicsSceneHoverEvent@Base 4:4.4.1~
 _ZN8Lancelot6Widget15mouseHoverEnterEv@Base 4:4.4.1~
 _ZN8Lancelot6Widget15mouseHoverLeaveEv@Base 4:4.4.1~
 _ZN8Lancelot6Widget15mousePressEventEP24QGraphicsSceneMouseEvent@Base 4:4.4.1~
 _ZN8Lancelot6Widget15paintBackgroundEP8QPainter@Base 4:4.4.1~
 _ZN8Lancelot6Widget15paintBackgroundEP8QPainterRK7QString@Base 4:4.4.1~
 _ZN8Lancelot6Widget16staticMetaObjectE@Base 4:4.4.1~
 _ZN8Lancelot6Widget17mouseReleaseEventEP24QGraphicsSceneMouseEvent@Base 4:4.4.1~
 _ZN8Lancelot6Widget24setPaintBackwardsWhenRTLEb@Base 4:4.4.1~
 _ZN8Lancelot6Widget5paintEP8QPainterPK24QStyleOptionGraphicsItemP7QWidget@Base 4:4.4.1~
 _ZN8Lancelot6Widget7clickedEv@Base 4:4.4.1~
 _ZN8Lancelot6Widget7pressedEv@Base 4:4.4.1~
 _ZN8Lancelot6Widget7setDownEb@Base 4:4.4.1~
 _ZN8Lancelot6Widget8releasedEv@Base 4:4.4.1~
 _ZN8Lancelot6Widget8setGroupEPNS_5GroupE@Base 4:4.4.1~
 _ZN8Lancelot6Widget9hideEventEP10QHideEvent@Base 4:4.4.1~
 _ZN8Lancelot6WidgetC1EP13QGraphicsItem@Base 4:4.4.1~
 _ZN8Lancelot6WidgetC2EP13QGraphicsItem@Base 4:4.4.1~
 _ZN8Lancelot6WidgetD0Ev@Base 4:4.4.1~
 _ZN8Lancelot6WidgetD1Ev@Base 4:4.4.1~
 _ZN8Lancelot6WidgetD2Ev@Base 4:4.4.1~
 _ZN8Lancelot9HoverIcon10timerEventEP11QTimerEvent@Base 4:4.4.1~
 _ZN8Lancelot9HoverIcon11qt_metacallEN11QMetaObject4CallEiPPv@Base 4:4.4.1~
 _ZN8Lancelot9HoverIcon11qt_metacastEPKc@Base 4:4.4.1~
 _ZN8Lancelot9HoverIcon15hoverEnterEventEP24QGraphicsSceneHoverEvent@Base 4:4.4.1~
 _ZN8Lancelot9HoverIcon15hoverLeaveEventEP24QGraphicsSceneHoverEvent@Base 4:4.4.1~
 _ZN8Lancelot9HoverIcon16staticMetaObjectE@Base 4:4.4.1~
 _ZN8Lancelot9HoverIcon19setActivationMethodEi@Base 4:4.4.1~
 _ZN8Lancelot9HoverIcon7Private5timerE@Base 4:4.4.1~
 _ZN8Lancelot9HoverIconC1EP13QGraphicsItem@Base 4:4.4.1~
 _ZN8Lancelot9HoverIconC1ERK5QIconRK7QStringP13QGraphicsItem@Base 4:4.4.1~
 _ZN8Lancelot9HoverIconC1ERK7QStringP13QGraphicsItem@Base 4:4.4.1~
 _ZN8Lancelot9HoverIconC2EP13QGraphicsItem@Base 4:4.4.1~
 _ZN8Lancelot9HoverIconC2ERK5QIconRK7QStringP13QGraphicsItem@Base 4:4.4.1~
 _ZN8Lancelot9HoverIconC2ERK7QStringP13QGraphicsItem@Base 4:4.4.1~
 _ZN8Lancelot9HoverIconD0Ev@Base 4:4.4.1~
 _ZN8Lancelot9HoverIconD1Ev@Base 4:4.4.1~
 _ZN8Lancelot9HoverIconD2Ev@Base 4:4.4.1~
 _ZN8Lancelot9PopupList10enterEventEP6QEvent@Base 4:4.4.1~
 _ZN8Lancelot9PopupList10leaveEventEP6QEvent@Base 4:4.4.1~
 _ZN8Lancelot9PopupList10timerEventEP11QTimerEvent@Base 4:4.4.1~
 _ZN8Lancelot9PopupList10updateSizeEv@Base 4:4.4.1~
 _ZN8Lancelot9PopupList11eventFilterEP7QObjectP6QEvent@Base 4:4.4.1~
 _ZN8Lancelot9PopupList11qt_metacallEN11QMetaObject4CallEiPPv@Base 4:4.4.1~
 _ZN8Lancelot9PopupList11qt_metacastEPKc@Base 4:4.4.1~
 _ZN8Lancelot9PopupList15setCloseTimeoutEi@Base 4:4.4.1~
 _ZN8Lancelot9PopupList16staticMetaObjectE@Base 4:4.4.1~
 _ZN8Lancelot9PopupList21setSublevelOpenActionENS0_18SublevelOpenActionE@Base 4:4.4.1~
 _ZN8Lancelot9PopupList4execERK6QPoint@Base 4:4.4.1~
 _ZN8Lancelot9PopupList4execERK6QPointPS0_@Base 4:4.4.1~
 _ZN8Lancelot9PopupList7Private11qt_metacallEN11QMetaObject4CallEiPPv@Base 4:4.4.1~
 _ZN8Lancelot9PopupList7Private11qt_metacastEPKc@Base 4:4.4.1~
 _ZN8Lancelot9PopupList7Private14connectSignalsEv@Base 4:4.4.1~
 _ZN8Lancelot9PopupList7Private16staticMetaObjectE@Base 4:4.4.1~
 _ZN8Lancelot9PopupList7Private17listItemActivatedEi@Base 4:4.4.1~
 _ZN8Lancelot9PopupList7PrivateC1EPS0_@Base 4:4.4.1~
 _ZN8Lancelot9PopupList7PrivateC2EPS0_@Base 4:4.4.1~
 _ZN8Lancelot9PopupList7PrivateD0Ev@Base 4:4.4.1~
 _ZN8Lancelot9PopupList7PrivateD1Ev@Base 4:4.4.1~
 _ZN8Lancelot9PopupList7PrivateD2Ev@Base 4:4.4.1~
 _ZN8Lancelot9PopupList8setModelEPNS_15ActionListModelE@Base 4:4.4.1~
 _ZN8Lancelot9PopupList9showEventEP10QShowEvent@Base 4:4.4.1~
 _ZN8Lancelot9PopupListC1EP7QWidget6QFlagsIN2Qt10WindowTypeEE@Base 4:4.4.1~
 _ZN8Lancelot9PopupListC2EP7QWidget6QFlagsIN2Qt10WindowTypeEE@Base 4:4.4.1~
 _ZN8Lancelot9PopupListD0Ev@Base 4:4.4.1~
 _ZN8Lancelot9PopupListD1Ev@Base 4:4.4.1~
 _ZN8Lancelot9PopupListD2Ev@Base 4:4.4.1~
 _ZN8Lancelot9PopupMenu11qt_metacallEN11QMetaObject4CallEiPPv@Base 4:4.4.1~
 _ZN8Lancelot9PopupMenu11qt_metacastEPKc@Base 4:4.4.1~
 _ZN8Lancelot9PopupMenu12actionChosenEi@Base 4:4.4.1~
 _ZN8Lancelot9PopupMenu16staticMetaObjectE@Base 4:4.4.1~
 _ZN8Lancelot9PopupMenu4execERK6QPointP7QAction@Base 4:4.4.1~
 _ZN8Lancelot9PopupMenu6actionEi@Base 4:4.4.1~
 _ZN8Lancelot9PopupMenu9addActionEP7QAction@Base 4:4.4.1~
 _ZN8Lancelot9PopupMenu9addActionERK5QIconRK7QString@Base 4:4.4.1~
 _ZN8Lancelot9PopupMenuC1EP7QWidget6QFlagsIN2Qt10WindowTypeEE@Base 4:4.4.1~
 _ZN8Lancelot9PopupMenuC2EP7QWidget6QFlagsIN2Qt10WindowTypeEE@Base 4:4.4.1~
 _ZN8Lancelot9PopupMenuD0Ev@Base 4:4.4.1~
 _ZN8Lancelot9PopupMenuD1Ev@Base 4:4.4.1~
 _ZN8Lancelot9PopupMenuD2Ev@Base 4:4.4.1~
 _ZN8Lancelot9ScrollBar10timerEventEP11QTimerEvent@Base 4:4.4.1~
 _ZN8Lancelot9ScrollBar10wheelEventEP24QGraphicsSceneWheelEvent@Base 4:4.4.1~
 _ZN8Lancelot9ScrollBar11qt_metacallEN11QMetaObject4CallEiPPv@Base 4:4.4.1~
 _ZN8Lancelot9ScrollBar11qt_metacastEPKc@Base 4:4.4.1~
 _ZN8Lancelot9ScrollBar14hoverMoveEventEP24QGraphicsSceneHoverEvent@Base 4:4.4.1~
 _ZN8Lancelot9ScrollBar15hoverLeaveEventEP24QGraphicsSceneHoverEvent@Base 4:4.4.1~
 _ZN8Lancelot9ScrollBar16staticMetaObjectE@Base 4:4.4.1~
 _ZN8Lancelot9ScrollBar19setActivationMethodEi@Base 4:4.4.1~
 _ZN8Lancelot9ScrollBarC1EP15QGraphicsWidget@Base 4:4.4.1~
 _ZN8Lancelot9ScrollBarC2EP15QGraphicsWidget@Base 4:4.4.1~
 _ZN8Lancelot9ScrollBarD0Ev@Base 4:4.4.1~
 _ZN8Lancelot9ScrollBarD1Ev@Base 4:4.4.1~
 _ZN8Lancelot9ScrollBarD2Ev@Base 4:4.4.1~
 (optional=templinst)_ZNK12KConfigGroup9readEntryI6QColorEET_PKcRKS2_@Base 4:4.4.1~
 _ZNK8Lancelot10CardLayout5countEv@Base 4:4.4.1~
 _ZNK8Lancelot10CardLayout6itemAtEi@Base 4:4.4.1~
 _ZNK8Lancelot10CardLayout8sizeHintEN2Qt8SizeHintERK6QSizeF@Base 4:4.4.1~
 _ZNK8Lancelot10CustomList10metaObjectEv@Base 4:4.4.1~
 _ZNK8Lancelot10CustomList10scrollUnitEN2Qt11OrientationE@Base 4:4.4.1~
 _ZNK8Lancelot10CustomList11itemFactoryEv@Base 4:4.4.1~
 _ZNK8Lancelot10CustomList14itemAtPositionEi@Base 4:4.4.1~
 _ZNK8Lancelot10CustomList7sizeForE6QSizeF@Base 4:4.4.1~
 _ZNK8Lancelot10NodeLayout5countEv@Base 4:4.4.1~
 _ZNK8Lancelot10NodeLayout6itemAtEi@Base 4:4.4.1~
 _ZNK8Lancelot10NodeLayout8sizeHintEN2Qt8SizeHintERK6QSizeF@Base 4:4.4.1~
 _ZNK8Lancelot10ScrollPane10metaObjectEv@Base 4:4.4.1~
 _ZNK8Lancelot10ScrollPane12contentsSizeEv@Base 4:4.4.1~
 _ZNK8Lancelot10ScrollPane14scrollPositionEv@Base 4:4.4.1~
 _ZNK8Lancelot10ScrollPane16viewportGeometryEv@Base 4:4.4.1~
 _ZNK8Lancelot10ScrollPane19currentViewportSizeEv@Base 4:4.4.1~
 _ZNK8Lancelot10ScrollPane19maximumViewportSizeEv@Base 4:4.4.1~
 _ZNK8Lancelot10ScrollPane5flagsEv@Base 4:4.4.1~
 _ZNK8Lancelot10Scrollable10scrollPaneEv@Base 4:4.4.1~
 _ZNK8Lancelot11BasicWidget10metaObjectEv@Base 4:4.4.1~
 _ZNK8Lancelot11BasicWidget11descriptionEv@Base 4:4.4.1~
 _ZNK8Lancelot11BasicWidget16innerOrientationEv@Base 4:4.4.1~
 _ZNK8Lancelot11BasicWidget4iconEv@Base 4:4.4.1~
 _ZNK8Lancelot11BasicWidget5titleEv@Base 4:4.4.1~
 _ZNK8Lancelot11BasicWidget8iconSizeEv@Base 4:4.4.1~
 _ZNK8Lancelot11BasicWidget8sizeHintEN2Qt8SizeHintERK6QSizeF@Base 4:4.4.1~
 _ZNK8Lancelot11BasicWidget9alignmentEv@Base 4:4.4.1~
 _ZNK8Lancelot11BasicWidget9iconInSvgEv@Base 4:4.4.1~
 _ZNK8Lancelot12ColumnLayout11columnCountEv@Base 4:4.4.1~
 _ZNK8Lancelot12ColumnLayout5countEv@Base 4:4.4.1~
 _ZNK8Lancelot12ColumnLayout5sizerEv@Base 4:4.4.1~
 _ZNK8Lancelot12ColumnLayout6itemAtEi@Base 4:4.4.1~
 _ZNK8Lancelot12ColumnLayout8sizeHintEN2Qt8SizeHintERK6QSizeF@Base 4:4.4.1~
 _ZNK8Lancelot14ActionListView10itemsGroupEv@Base 4:4.4.1~
 _ZNK8Lancelot14ActionListView10metaObjectEv@Base 4:4.4.1~
 _ZNK8Lancelot14ActionListView13selectedIndexEv@Base 4:4.4.1~
 _ZNK8Lancelot14ActionListView15categoriesGroupEv@Base 4:4.4.1~
 _ZNK8Lancelot14ActionListView16extenderPositionEv@Base 4:4.4.1~
 _ZNK8Lancelot14ActionListView21showsExtendersOutsideEv@Base 4:4.4.1~
 _ZNK8Lancelot14ActionListView22areCategoriesActivableEv@Base 4:4.4.1~
 _ZNK8Lancelot14ActionListView5modelEv@Base 4:4.4.1~
 _ZNK8Lancelot14ActionListView7Private10metaObjectEv@Base 4:4.4.1~
 _ZNK8Lancelot14ActionListView8sizeHintEN2Qt8SizeHintERK6QSizeF@Base 4:4.4.1~
 _ZNK8Lancelot14CustomListView10metaObjectEv@Base 4:4.4.1~
 _ZNK8Lancelot14CustomListView4listEv@Base 4:4.4.1~
 _ZNK8Lancelot14ExtenderButton10metaObjectEv@Base 4:4.4.1~
 _ZNK8Lancelot14ExtenderButton11isCheckableEv@Base 4:4.4.1~
 _ZNK8Lancelot14ExtenderButton12boundingRectEv@Base 4:4.4.1~
 _ZNK8Lancelot14ExtenderButton16activationMethodEv@Base 4:4.4.1~
 _ZNK8Lancelot14ExtenderButton16extenderPositionEv@Base 4:4.4.1~
 _ZNK8Lancelot14ExtenderButton9isCheckedEv@Base 4:4.4.1~
 _ZNK8Lancelot14PassagewayView10metaObjectEv@Base 4:4.4.1~
 _ZNK8Lancelot14PassagewayView16activationMethodEv@Base 4:4.4.1~
 _ZNK8Lancelot15ActionListModel10isCategoryEi@Base 4:4.4.1~
 _ZNK8Lancelot15ActionListModel10metaObjectEv@Base 4:4.4.1~
 _ZNK8Lancelot15ActionListModel11descriptionEi@Base 4:4.4.1~
 _ZNK8Lancelot15ActionListModel12selfMimeDataEv@Base 4:4.4.1~
 _ZNK8Lancelot15ActionListModel17hasContextActionsEi@Base 4:4.4.1~
 _ZNK8Lancelot15ActionListModel4iconEi@Base 4:4.4.1~
 _ZNK8Lancelot15ActionListModel8mimeDataEi@Base 4:4.4.1~
 _ZNK8Lancelot15ActionListModel8selfIconEv@Base 4:4.4.1~
 _ZNK8Lancelot15ActionListModel9selfTitleEv@Base 4:4.4.1~
 _ZNK8Lancelot16FullBorderLayout4sizeENS0_6BorderE@Base 4:4.4.1~
 _ZNK8Lancelot16FullBorderLayout5countEv@Base 4:4.4.1~
 _ZNK8Lancelot16FullBorderLayout6itemAtEi@Base 4:4.4.1~
 _ZNK8Lancelot16FullBorderLayout8sizeHintEN2Qt8SizeHintERK6QSizeF@Base 4:4.4.1~
 _ZNK8Lancelot17FlipLayoutManager10globalFlipEv@Base 4:4.4.1~
 _ZNK8Lancelot17FlipLayoutManager11setGeometryEP15QGraphicsLayout@Base 4:4.4.1~
 _ZNK8Lancelot17FlipLayoutManager4flipEPK15QGraphicsLayout@Base 4:4.4.1~
 _ZNK8Lancelot20ActionTreeModelProxy10isCategoryEi@Base 4:4.4.1~
 _ZNK8Lancelot20ActionTreeModelProxy10metaObjectEv@Base 4:4.4.1~
 _ZNK8Lancelot20ActionTreeModelProxy11descriptionEi@Base 4:4.4.1~
 _ZNK8Lancelot20ActionTreeModelProxy17hasContextActionsEi@Base 4:4.4.1~
 _ZNK8Lancelot20ActionTreeModelProxy4iconEi@Base 4:4.4.1~
 _ZNK8Lancelot20ActionTreeModelProxy4sizeEv@Base 4:4.4.1~
 _ZNK8Lancelot20ActionTreeModelProxy5modelEv@Base 4:4.4.1~
 _ZNK8Lancelot20ActionTreeModelProxy5titleEi@Base 4:4.4.1~
 _ZNK8Lancelot20ActionTreeModelProxy8mimeDataEi@Base 4:4.4.1~
 _ZNK8Lancelot20ActionTreeModelProxy8selfIconEv@Base 4:4.4.1~
 _ZNK8Lancelot20ActionTreeModelProxy9selfTitleEv@Base 4:4.4.1~
 _ZNK8Lancelot21CustomListItemFactory10metaObjectEv@Base 4:4.4.1~
 _ZNK8Lancelot21MergedActionListModel10isCategoryEi@Base 4:4.4.1~
 _ZNK8Lancelot21MergedActionListModel10metaObjectEv@Base 4:4.4.1~
 _ZNK8Lancelot21MergedActionListModel10modelCountEv@Base 4:4.4.1~
 _ZNK8Lancelot21MergedActionListModel11descriptionEi@Base 4:4.4.1~
 _ZNK8Lancelot21MergedActionListModel13modelMimeDataEi@Base 4:4.4.1~
 _ZNK8Lancelot21MergedActionListModel15hideEmptyModelsEv@Base 4:4.4.1~
 _ZNK8Lancelot21MergedActionListModel17hasContextActionsEi@Base 4:4.4.1~
 _ZNK8Lancelot21MergedActionListModel22hasModelContextActionsEi@Base 4:4.4.1~
 _ZNK8Lancelot21MergedActionListModel4iconEi@Base 4:4.4.1~
 _ZNK8Lancelot21MergedActionListModel4sizeEv@Base 4:4.4.1~
 _ZNK8Lancelot21MergedActionListModel5titleEi@Base 4:4.4.1~
 _ZNK8Lancelot21MergedActionListModel7Private18toChildCoordinatesEiRiS2_@Base 4:4.4.1~
 _ZNK8Lancelot21MergedActionListModel7Private20fromChildCoordinatesERiii@Base 4:4.4.1~
 _ZNK8Lancelot21MergedActionListModel8mimeDataEi@Base 4:4.4.1~
 _ZNK8Lancelot22PlasmaServiceListModel10isCategoryEi@Base 4:4.4.1~
 _ZNK8Lancelot22PlasmaServiceListModel10metaObjectEv@Base 4:4.4.1~
 _ZNK8Lancelot22PlasmaServiceListModel11descriptionEi@Base 4:4.4.1~
 _ZNK8Lancelot22PlasmaServiceListModel4iconEi@Base 4:4.4.1~
 _ZNK8Lancelot22PlasmaServiceListModel4sizeEv@Base 4:4.4.1~
 _ZNK8Lancelot22PlasmaServiceListModel5titleEi@Base 4:4.4.1~
 _ZNK8Lancelot22PlasmaServiceListModel8selfIconEv@Base 4:4.4.1~
 _ZNK8Lancelot22PlasmaServiceListModel9selfTitleEv@Base 4:4.4.1~
 _ZNK8Lancelot23StandardActionListModel10isCategoryEi@Base 4:4.4.1~
 _ZNK8Lancelot23StandardActionListModel10metaObjectEv@Base 4:4.4.1~
 _ZNK8Lancelot23StandardActionListModel11descriptionEi@Base 4:4.4.1~
 _ZNK8Lancelot23StandardActionListModel13emitInhibitedEv@Base 4:4.4.1~
 _ZNK8Lancelot23StandardActionListModel4iconEi@Base 4:4.4.1~
 _ZNK8Lancelot23StandardActionListModel4sizeEv@Base 4:4.4.1~
 _ZNK8Lancelot23StandardActionListModel5titleEi@Base 4:4.4.1~
 _ZNK8Lancelot23StandardActionListModel6itemAtEi@Base 4:4.4.1~
 _ZNK8Lancelot23StandardActionTreeModel10isCategoryEi@Base 4:4.4.1~
 _ZNK8Lancelot23StandardActionTreeModel11descriptionEi@Base 4:4.4.1~
 _ZNK8Lancelot23StandardActionTreeModel4dataEi@Base 4:4.4.1~
 _ZNK8Lancelot23StandardActionTreeModel4iconEi@Base 4:4.4.1~
 _ZNK8Lancelot23StandardActionTreeModel4rootEv@Base 4:4.4.1~
 _ZNK8Lancelot23StandardActionTreeModel4sizeEv@Base 4:4.4.1~
 _ZNK8Lancelot23StandardActionTreeModel5titleEi@Base 4:4.4.1~
 _ZNK8Lancelot23StandardActionTreeModel8selfIconEv@Base 4:4.4.1~
 _ZNK8Lancelot23StandardActionTreeModel9selfTitleEv@Base 4:4.4.1~
 _ZNK8Lancelot5Group11hasPropertyERK7QString@Base 4:4.4.1~
 _ZNK8Lancelot5Group13backgroundSvgEv@Base 4:4.4.1~
 _ZNK8Lancelot5Group15backgroundColorEv@Base 4:4.4.1~
 _ZNK8Lancelot5Group15foregroundColorEv@Base 4:4.4.1~
 _ZNK8Lancelot5Group4nameEv@Base 4:4.4.1~
 _ZNK8Lancelot5Group8propertyERK7QString@Base 4:4.4.1~
 _ZNK8Lancelot5Panel10borderSizeEN6Plasma10MarginEdgeE@Base 4:4.4.1~
 _ZNK8Lancelot5Panel10layoutItemEv@Base 4:4.4.1~
 _ZNK8Lancelot5Panel10metaObjectEv@Base 4:4.4.1~
 _ZNK8Lancelot5Panel14isShowingTitleEv@Base 4:4.4.1~
 _ZNK8Lancelot5Panel4iconEv@Base 4:4.4.1~
 _ZNK8Lancelot5Panel5titleEv@Base 4:4.4.1~
 _ZNK8Lancelot5Panel8iconSizeEv@Base 4:4.4.1~
 _ZNK8Lancelot5Panel8sizeHintEN2Qt8SizeHintERK6QSizeF@Base 4:4.4.1~
 _ZNK8Lancelot6Global10metaObjectEv@Base 4:4.4.1~
 _ZNK8Lancelot6Global11groupExistsERK7QString@Base 4:4.4.1~
 _ZNK8Lancelot6Global12immutabilityEv@Base 4:4.4.1~
 _ZNK8Lancelot6Global7Private10metaObjectEv@Base 4:4.4.1~
 _ZNK8Lancelot6Widget10metaObjectEv@Base 4:4.4.1~
 _ZNK8Lancelot6Widget5groupEv@Base 4:4.4.1~
 _ZNK8Lancelot6Widget6isDownEv@Base 4:4.4.1~
 _ZNK8Lancelot6Widget8sizeHintEN2Qt8SizeHintERK6QSizeF@Base 4:4.4.1~
 _ZNK8Lancelot6Widget9groupNameEv@Base 4:4.4.1~
 _ZNK8Lancelot6Widget9isHoveredEv@Base 4:4.4.1~
 _ZNK8Lancelot9HoverIcon10metaObjectEv@Base 4:4.4.1~
 _ZNK8Lancelot9HoverIcon16activationMethodEv@Base 4:4.4.1~
 _ZNK8Lancelot9PopupList10metaObjectEv@Base 4:4.4.1~
 _ZNK8Lancelot9PopupList12closeTimeoutEv@Base 4:4.4.1~
 _ZNK8Lancelot9PopupList18sublevelOpenActionEv@Base 4:4.4.1~
 _ZNK8Lancelot9PopupList7Private10metaObjectEv@Base 4:4.4.1~
 _ZNK8Lancelot9PopupMenu10metaObjectEv@Base 4:4.4.1~
 _ZNK8Lancelot9ScrollBar10metaObjectEv@Base 4:4.4.1~
 _ZNK8Lancelot9ScrollBar16activationMethodEv@Base 4:4.4.1~
 _ZTIN8Lancelot10CardLayoutE@Base 4:4.4.1~
 _ZTIN8Lancelot10CustomListE@Base 4:4.4.1~
 _ZTIN8Lancelot10NodeLayoutE@Base 4:4.4.1~
 _ZTIN8Lancelot10ScrollPaneE@Base 4:4.4.1~
 _ZTIN8Lancelot10ScrollableE@Base 4:4.4.1~
 _ZTIN8Lancelot11BasicWidgetE@Base 4:4.4.1~
 _ZTIN8Lancelot12ColumnLayout11ColumnSizerE@Base 4:4.4.1~
 _ZTIN8Lancelot12ColumnLayoutE@Base 4:4.4.1~
 _ZTIN8Lancelot14ActionListView7PrivateE@Base 4:4.4.1~
 _ZTIN8Lancelot14ActionListViewE@Base 4:4.4.1~
 _ZTIN8Lancelot14CustomListItemE@Base 4:4.4.1~
 _ZTIN8Lancelot14CustomListViewE@Base 4:4.4.1~
 _ZTIN8Lancelot14ExtenderButtonE@Base 4:4.4.1~
 _ZTIN8Lancelot14PassagewayView7Private14BreadcrumbItemE@Base 4:4.4.1~
 _ZTIN8Lancelot14PassagewayViewE@Base 4:4.4.1~
 _ZTIN8Lancelot15ActionListModelE@Base 4:4.4.1~
 _ZTIN8Lancelot15ActionTreeModelE@Base 4:4.4.1~
 _ZTIN8Lancelot16FullBorderLayout7PrivateE@Base 4:4.4.1~
 _ZTIN8Lancelot16FullBorderLayoutE@Base 4:4.4.1~
 _ZTIN8Lancelot18ResizeBordersPanel7Private10BorderItemE@Base 4:4.4.1~
 _ZTIN8Lancelot18ResizeBordersPanelE@Base 4:4.4.1~
 _ZTIN8Lancelot20ActionTreeModelProxyE@Base 4:4.4.1~
 _ZTIN8Lancelot21CustomListItemFactoryE@Base 4:4.4.1~
 _ZTIN8Lancelot21MergedActionListModelE@Base 4:4.4.1~
 _ZTIN8Lancelot22PlasmaServiceListModelE@Base 4:4.4.1~
 _ZTIN8Lancelot23StandardActionListModelE@Base 4:4.4.1~
 _ZTIN8Lancelot23StandardActionTreeModelE@Base 4:4.4.1~
 _ZTIN8Lancelot5GroupE@Base 4:4.4.1~
 _ZTIN8Lancelot5PanelE@Base 4:4.4.1~
 _ZTIN8Lancelot6Global7PrivateE@Base 4:4.4.1~
 _ZTIN8Lancelot6GlobalE@Base 4:4.4.1~
 _ZTIN8Lancelot6WidgetE@Base 4:4.4.1~
 _ZTIN8Lancelot9HoverIconE@Base 4:4.4.1~
 _ZTIN8Lancelot9PopupList7PrivateE@Base 4:4.4.1~
 _ZTIN8Lancelot9PopupListE@Base 4:4.4.1~
 _ZTIN8Lancelot9PopupMenuE@Base 4:4.4.1~
 _ZTIN8Lancelot9ScrollBarE@Base 4:4.4.1~
 _ZTSN8Lancelot10CardLayoutE@Base 4:4.4.1~
 _ZTSN8Lancelot10CustomListE@Base 4:4.4.1~
 _ZTSN8Lancelot10NodeLayoutE@Base 4:4.4.1~
 _ZTSN8Lancelot10ScrollPaneE@Base 4:4.4.1~
 _ZTSN8Lancelot10ScrollableE@Base 4:4.4.1~
 _ZTSN8Lancelot11BasicWidgetE@Base 4:4.4.1~
 _ZTSN8Lancelot12ColumnLayout11ColumnSizerE@Base 4:4.4.1~
 _ZTSN8Lancelot12ColumnLayoutE@Base 4:4.4.1~
 _ZTSN8Lancelot14ActionListView7PrivateE@Base 4:4.4.1~
 _ZTSN8Lancelot14ActionListViewE@Base 4:4.4.1~
 _ZTSN8Lancelot14CustomListItemE@Base 4:4.4.1~
 _ZTSN8Lancelot14CustomListViewE@Base 4:4.4.1~
 _ZTSN8Lancelot14ExtenderButtonE@Base 4:4.4.1~
 _ZTSN8Lancelot14PassagewayView7Private14BreadcrumbItemE@Base 4:4.4.1~
 _ZTSN8Lancelot14PassagewayViewE@Base 4:4.4.1~
 _ZTSN8Lancelot15ActionListModelE@Base 4:4.4.1~
 _ZTSN8Lancelot15ActionTreeModelE@Base 4:4.4.1~
 _ZTSN8Lancelot16FullBorderLayout7PrivateE@Base 4:4.4.1~
 _ZTSN8Lancelot16FullBorderLayoutE@Base 4:4.4.1~
 _ZTSN8Lancelot18ResizeBordersPanel7Private10BorderItemE@Base 4:4.4.1~
 _ZTSN8Lancelot18ResizeBordersPanelE@Base 4:4.4.1~
 _ZTSN8Lancelot20ActionTreeModelProxyE@Base 4:4.4.1~
 _ZTSN8Lancelot21CustomListItemFactoryE@Base 4:4.4.1~
 _ZTSN8Lancelot21MergedActionListModelE@Base 4:4.4.1~
 _ZTSN8Lancelot22PlasmaServiceListModelE@Base 4:4.4.1~
 _ZTSN8Lancelot23StandardActionListModelE@Base 4:4.4.1~
 _ZTSN8Lancelot23StandardActionTreeModelE@Base 4:4.4.1~
 _ZTSN8Lancelot5GroupE@Base 4:4.4.1~
 _ZTSN8Lancelot5PanelE@Base 4:4.4.1~
 _ZTSN8Lancelot6Global7PrivateE@Base 4:4.4.1~
 _ZTSN8Lancelot6GlobalE@Base 4:4.4.1~
 _ZTSN8Lancelot6WidgetE@Base 4:4.4.1~
 _ZTSN8Lancelot9HoverIconE@Base 4:4.4.1~
 _ZTSN8Lancelot9PopupList7PrivateE@Base 4:4.4.1~
 _ZTSN8Lancelot9PopupListE@Base 4:4.4.1~
 _ZTSN8Lancelot9PopupMenuE@Base 4:4.4.1~
 _ZTSN8Lancelot9ScrollBarE@Base 4:4.4.1~
 _ZTVN8Lancelot10CardLayoutE@Base 4:4.4.1~
 _ZTVN8Lancelot10CustomListE@Base 4:4.4.1~
 _ZTVN8Lancelot10NodeLayoutE@Base 4:4.4.1~
 _ZTVN8Lancelot10ScrollPaneE@Base 4:4.4.1~
 _ZTVN8Lancelot10ScrollableE@Base 4:4.4.1~
 _ZTVN8Lancelot11BasicWidgetE@Base 4:4.4.1~
 _ZTVN8Lancelot12ColumnLayout11ColumnSizerE@Base 4:4.4.1~
 _ZTVN8Lancelot12ColumnLayoutE@Base 4:4.4.1~
 _ZTVN8Lancelot14ActionListView7PrivateE@Base 4:4.4.1~
 _ZTVN8Lancelot14ActionListViewE@Base 4:4.4.1~
 _ZTVN8Lancelot14CustomListItemE@Base 4:4.4.1~
 _ZTVN8Lancelot14CustomListViewE@Base 4:4.4.1~
 _ZTVN8Lancelot14ExtenderButtonE@Base 4:4.4.1~
 _ZTVN8Lancelot14PassagewayView7Private14BreadcrumbItemE@Base 4:4.4.1~
 _ZTVN8Lancelot14PassagewayViewE@Base 4:4.4.1~
 _ZTVN8Lancelot15ActionListModelE@Base 4:4.4.1~
 _ZTVN8Lancelot15ActionTreeModelE@Base 4:4.4.1~
 _ZTVN8Lancelot16FullBorderLayout7PrivateE@Base 4:4.4.1~
 _ZTVN8Lancelot16FullBorderLayoutE@Base 4:4.4.1~
 _ZTVN8Lancelot18ResizeBordersPanel7Private10BorderItemE@Base 4:4.4.1~
 _ZTVN8Lancelot18ResizeBordersPanelE@Base 4:4.4.1~
 _ZTVN8Lancelot20ActionTreeModelProxyE@Base 4:4.4.1~
 _ZTVN8Lancelot21CustomListItemFactoryE@Base 4:4.4.1~
 _ZTVN8Lancelot21MergedActionListModelE@Base 4:4.4.1~
 _ZTVN8Lancelot22PlasmaServiceListModelE@Base 4:4.4.1~
 _ZTVN8Lancelot23StandardActionListModelE@Base 4:4.4.1~
 _ZTVN8Lancelot23StandardActionTreeModelE@Base 4:4.4.1~
 _ZTVN8Lancelot5GroupE@Base 4:4.4.1~
 _ZTVN8Lancelot5PanelE@Base 4:4.4.1~
 _ZTVN8Lancelot6Global7PrivateE@Base 4:4.4.1~
 _ZTVN8Lancelot6GlobalE@Base 4:4.4.1~
 _ZTVN8Lancelot6WidgetE@Base 4:4.4.1~
 _ZTVN8Lancelot9HoverIconE@Base 4:4.4.1~
 _ZTVN8Lancelot9PopupList7PrivateE@Base 4:4.4.1~
 _ZTVN8Lancelot9PopupListE@Base 4:4.4.1~
 _ZTVN8Lancelot9PopupMenuE@Base 4:4.4.1~
 _ZTVN8Lancelot9ScrollBarE@Base 4:4.4.1~
 (c++)"non-virtual thunk to Lancelot::ActionListView::keyPressEvent(QKeyEvent*)@Base" 4:4.4.1~
 (c++)"non-virtual thunk to Lancelot::ActionListView::sceneEvent(QEvent*)@Base" 4:4.4.1~
 (c++)"non-virtual thunk to Lancelot::ActionListView::sceneEventFilter(QGraphicsItem*, QEvent*)@Base" 4:4.4.1~
 (c++)"non-virtual thunk to Lancelot::ActionListView::sizeHint(Qt::SizeHint, QSizeF const&) const@Base" 4:4.4.1~
 (c++)"non-virtual thunk to Lancelot::ActionListView::~ActionListView()@Base" 4:4.4.1~
 (c++)"non-virtual thunk to Lancelot::BasicWidget::paint(QPainter*, QStyleOptionGraphicsItem const*, QWidget*)@Base" 4:4.4.1~
 (c++)"non-virtual thunk to Lancelot::BasicWidget::sizeHint(Qt::SizeHint, QSizeF const&) const@Base" 4:4.4.1~
 (c++)"non-virtual thunk to Lancelot::BasicWidget::~BasicWidget()@Base" 4:4.4.1~
 (c++)"non-virtual thunk to Lancelot::CustomList::scrollUnit(Qt::Orientation) const@Base" 4:4.4.1~
 (c++)"non-virtual thunk to Lancelot::CustomList::sizeFor(QSizeF) const@Base" 4:4.4.1~
 (c++)"non-virtual thunk to Lancelot::CustomList::viewportChanged(QRectF)@Base" 4:4.4.1~
 (c++)"non-virtual thunk to Lancelot::CustomList::~CustomList()@Base" 4:4.4.1~
 (c++)"non-virtual thunk to Lancelot::CustomListView::~CustomListView()@Base" 4:4.4.1~
 (c++)"non-virtual thunk to Lancelot::ExtenderButton::boundingRect() const@Base" 4:4.4.1~
 (c++)"non-virtual thunk to Lancelot::ExtenderButton::hoverEnterEvent(QGraphicsSceneHoverEvent*)@Base" 4:4.4.1~
 (c++)"non-virtual thunk to Lancelot::ExtenderButton::hoverLeaveEvent(QGraphicsSceneHoverEvent*)@Base" 4:4.4.1~
 (c++)"non-virtual thunk to Lancelot::ExtenderButton::paint(QPainter*, QStyleOptionGraphicsItem const*, QWidget*)@Base" 4:4.4.1~
 (c++)"non-virtual thunk to Lancelot::ExtenderButton::~ExtenderButton()@Base" 4:4.4.1~
 (c++)"non-virtual thunk to Lancelot::HoverIcon::hoverEnterEvent(QGraphicsSceneHoverEvent*)@Base" 4:4.4.1~
 (c++)"non-virtual thunk to Lancelot::HoverIcon::hoverLeaveEvent(QGraphicsSceneHoverEvent*)@Base" 4:4.4.1~
 (c++)"non-virtual thunk to Lancelot::HoverIcon::~HoverIcon()@Base" 4:4.4.1~
 (c++)"non-virtual thunk to Lancelot::Panel::sizeHint(Qt::SizeHint, QSizeF const&) const@Base" 4:4.4.1~
 (c++)"non-virtual thunk to Lancelot::Panel::~Panel()@Base" 4:4.4.1~
 (c++)"non-virtual thunk to Lancelot::PassagewayView::keyPressEvent(QKeyEvent*)@Base" 4:4.4.1~
 (c++)"non-virtual thunk to Lancelot::PassagewayView::~PassagewayView()@Base" 4:4.4.1~
 (c++)"non-virtual thunk to Lancelot::PopupList::~PopupList()@Base" 4:4.4.1~
 (c++)"non-virtual thunk to Lancelot::PopupMenu::~PopupMenu()@Base" 4:4.4.1~
 (c++)"non-virtual thunk to Lancelot::ResizeBordersPanel::~ResizeBordersPanel()@Base" 4:4.4.1~
 (c++)"non-virtual thunk to Lancelot::ScrollBar::hoverLeaveEvent(QGraphicsSceneHoverEvent*)@Base" 4:4.4.1~
 (c++)"non-virtual thunk to Lancelot::ScrollBar::hoverMoveEvent(QGraphicsSceneHoverEvent*)@Base" 4:4.4.1~
 (c++)"non-virtual thunk to Lancelot::ScrollBar::wheelEvent(QGraphicsSceneWheelEvent*)@Base" 4:4.4.1~
 (c++)"non-virtual thunk to Lancelot::ScrollBar::~ScrollBar()@Base" 4:4.4.1~
 (c++)"non-virtual thunk to Lancelot::ScrollPane::hoverEnterEvent(QGraphicsSceneHoverEvent*)@Base" 4:4.4.1~
 (c++)"non-virtual thunk to Lancelot::ScrollPane::hoverLeaveEvent(QGraphicsSceneHoverEvent*)@Base" 4:4.4.1~
 (c++)"non-virtual thunk to Lancelot::ScrollPane::~ScrollPane()@Base" 4:4.4.1~
 (c++)"non-virtual thunk to Lancelot::Widget::hoverEnterEvent(QGraphicsSceneHoverEvent*)@Base" 4:4.4.1~
 (c++)"non-virtual thunk to Lancelot::Widget::hoverLeaveEvent(QGraphicsSceneHoverEvent*)@Base" 4:4.4.1~
 (c++)"non-virtual thunk to Lancelot::Widget::mousePressEvent(QGraphicsSceneMouseEvent*)@Base" 4:4.4.1~
 (c++)"non-virtual thunk to Lancelot::Widget::mouseReleaseEvent(QGraphicsSceneMouseEvent*)@Base" 4:4.4.1~
 (c++)"non-virtual thunk to Lancelot::Widget::paint(QPainter*, QStyleOptionGraphicsItem const*, QWidget*)@Base" 4:4.4.1~
 (c++)"non-virtual thunk to Lancelot::Widget::sizeHint(Qt::SizeHint, QSizeF const&) const@Base" 4:4.4.1~
 (c++)"non-virtual thunk to Lancelot::Widget::~Widget()@Base" 4:4.4.1~
